target datalayout = "e-m:e-p270:32:32-p271:32:32-p272:64:64-i64:64-i128:128-f80:128-n8:16:32:64-S128"
target triple = "x86_64-pc-linux-gnu"

%struct.LodePNGColorMode = type { i32, i32, ptr, i64, i32, i32, i32, i32 }
%struct.LodePNGInfo = type { i32, i32, i32, %struct.LodePNGColorMode, i32, i32, i32, i32, i64, ptr, ptr, i64, ptr, ptr, ptr, ptr, i32, ptr, i32, i32, %struct.LodePNGTime, i32, i32, i32, i32, i32, i32, i32, i32, i32, i32, i32, i32, i32, i32, i32, i32, i32, i32, ptr, ptr, i32, i32, i32, i32, i32, i32, i32, i32, i32, i32, i32, i32, i32, i32, i32, i32, i32, i32, i32, i32, i32, i32, i32, i32, i32, [3 x ptr], [3 x i64] }
%struct.LodePNGTime = type { i32, i32, i32, i32, i32, i32 }

; Function Attrs: mustprogress nounwind uwtable
define internal noundef i32 @_ZL14readChunk_tIMEP11LodePNGInfoPKhm(ptr noundef %0, ptr noundef %1, i64 noundef %2) #3 {
  %4 = alloca i32, align 4
  %5 = alloca ptr, align 8
  %6 = alloca ptr, align 8
  %7 = alloca i64, align 8
  store ptr %0, ptr %5, align 8, !tbaa !116
  store ptr %1, ptr %6, align 8, !tbaa !11
  store i64 %2, ptr %7, align 8, !tbaa !17
  %8 = load i64, ptr %7, align 8, !tbaa !17
  %9 = icmp ne i64 %8, 7
  br i1 %9, label %10, label %11

10:                                               ; preds = %3
  store i32 73, ptr %4, align 4
  br label %62

11:                                               ; preds = %3
  %12 = load ptr, ptr %5, align 8, !tbaa !116
  %13 = getelementptr inbounds nuw %struct.LodePNGInfo, ptr %12, i32 0, i32 19
  store i32 1, ptr %13, align 4, !tbaa !144
  %14 = load ptr, ptr %6, align 8, !tbaa !11
  %15 = getelementptr inbounds i8, ptr %14, i64 0
  %16 = load i8, ptr %15, align 1, !tbaa !45
  %17 = zext i8 %16 to i32
  %18 = mul i32 256, %17
  %19 = load ptr, ptr %6, align 8, !tbaa !11
  %20 = getelementptr inbounds i8, ptr %19, i64 1
  %21 = load i8, ptr %20, align 1, !tbaa !45
  %22 = zext i8 %21 to i32
  %23 = add i32 %18, %22
  %24 = load ptr, ptr %5, align 8, !tbaa !116
  %25 = getelementptr inbounds nuw %struct.LodePNGInfo, ptr %24, i32 0, i32 20
  %26 = getelementptr inbounds nuw %struct.LodePNGTime, ptr %25, i32 0, i32 0
  store i32 %23, ptr %26, align 8, !tbaa !259
  %27 = load ptr, ptr %6, align 8, !tbaa !11
  %28 = getelementptr inbounds i8, ptr %27, i64 2
  %29 = load i8, ptr %28, align 1, !tbaa !45
  %30 = zext i8 %29 to i32
  %31 = load ptr, ptr %5, align 8, !tbaa !116
  %32 = getelementptr inbounds nuw %struct.LodePNGInfo, ptr %31, i32 0, i32 20
  %33 = getelementptr inbounds nuw %struct.LodePNGTime, ptr %32, i32 0, i32 1
  store i32 %30, ptr %33, align 4, !tbaa !260
  %34 = load ptr, ptr %6, align 8, !tbaa !11
  %35 = getelementptr inbounds i8, ptr %34, i64 3
  %36 = load i8, ptr %35, align 1, !tbaa !45
  %37 = zext i8 %36 to i32
  %38 = load ptr, ptr %5, align 8, !tbaa !116
  %39 = getelementptr inbounds nuw %struct.LodePNGInfo, ptr %38, i32 0, i32 20
  %40 = getelementptr inbounds nuw %struct.LodePNGTime, ptr %39, i32 0, i32 2
  store i32 %37, ptr %40, align 8, !tbaa !261
  %41 = load ptr, ptr %6, align 8, !tbaa !11
  %42 = getelementptr inbounds i8, ptr %41, i64 4
  %43 = load i8, ptr %42, align 1, !tbaa !45
  %44 = zext i8 %43 to i32
  %45 = load ptr, ptr %5, align 8, !tbaa !116
  %46 = getelementptr inbounds nuw %struct.LodePNGInfo, ptr %45, i32 0, i32 20
  %47 = getelementptr inbounds nuw %struct.LodePNGTime, ptr %46, i32 0, i32 3
  store i32 %44, ptr %47, align 4, !tbaa !262
  %48 = load ptr, ptr %6, align 8, !tbaa !11
  %49 = getelementptr inbounds i8, ptr %48, i64 5
  %50 = load i8, ptr %49, align 1, !tbaa !45
  %51 = zext i8 %50 to i32
  %52 = load ptr, ptr %5, align 8, !tbaa !116
  %53 = getelementptr inbounds nuw %struct.LodePNGInfo, ptr %52, i32 0, i32 20
  %54 = getelementptr inbounds nuw %struct.LodePNGTime, ptr %53, i32 0, i32 4
  store i32 %51, ptr %54, align 8, !tbaa !263
  %55 = load ptr, ptr %6, align 8, !tbaa !11
  %56 = getelementptr inbounds i8, ptr %55, i64 6
  %57 = load i8, ptr %56, align 1, !tbaa !45
  %58 = zext i8 %57 to i32
  %59 = load ptr, ptr %5, align 8, !tbaa !116
  %60 = getelementptr inbounds nuw %struct.LodePNGInfo, ptr %59, i32 0, i32 20
  %61 = getelementptr inbounds nuw %struct.LodePNGTime, ptr %60, i32 0, i32 5
  store i32 %58, ptr %61, align 4, !tbaa !264
  store i32 0, ptr %4, align 4
  br label %62

62:                                               ; preds = %11, %10
  %63 = load i32, ptr %4, align 4
  ret i32 %63
}