; Function Attrs: mustprogress nofree norecurse nosync nounwind willreturn memory(argmem: readwrite) uwtable
define internal fastcc noundef range(i32 0, 74) i32 @_ZL14readChunk_tIMEP11LodePNGInfoPKhm(ptr noundef writeonly captures(none) %0, ptr noundef readonly captures(none) %1, i64 noundef range(i64 0, 2147483648) %2) unnamed_addr #13 {
  %.not = icmp eq i64 %2, 7
  br i1 %.not, label %4, label %34

4:                                                ; preds = %3
  %5 = getelementptr inbounds nuw i8, ptr %0, i64 156
  store i32 1, ptr %5, align 4, !tbaa !450
  %6 = load i8, ptr %1, align 1, !tbaa !18
  %7 = zext i8 %6 to i32
  %8 = shl nuw nsw i32 %7, 8
  %9 = getelementptr inbounds nuw i8, ptr %1, i64 1
  %10 = load i8, ptr %9, align 1, !tbaa !18
  %11 = zext i8 %10 to i32
  %12 = or disjoint i32 %8, %11
  %13 = getelementptr inbounds nuw i8, ptr %0, i64 160
  store i32 %12, ptr %13, align 8, !tbaa !451
  %14 = getelementptr inbounds nuw i8, ptr %1, i64 2
  %15 = load i8, ptr %14, align 1, !tbaa !18
  %16 = zext i8 %15 to i32
  %17 = getelementptr inbounds nuw i8, ptr %0, i64 164
  store i32 %16, ptr %17, align 4, !tbaa !452
  %18 = getelementptr inbounds nuw i8, ptr %1, i64 3
  %19 = load i8, ptr %18, align 1, !tbaa !18
  %20 = zext i8 %19 to i32
  %21 = getelementptr inbounds nuw i8, ptr %0, i64 168
  store i32 %20, ptr %21, align 8, !tbaa !453
  %22 = getelementptr inbounds nuw i8, ptr %1, i64 4
  %23 = load i8, ptr %22, align 1, !tbaa !18
  %24 = zext i8 %23 to i32
  %25 = getelementptr inbounds nuw i8, ptr %0, i64 172
  store i32 %24, ptr %25, align 4, !tbaa !454
  %26 = getelementptr inbounds nuw i8, ptr %1, i64 5
  %27 = load i8, ptr %26, align 1, !tbaa !18
  %28 = zext i8 %27 to i32
  %29 = getelementptr inbounds nuw i8, ptr %0, i64 176
  store i32 %28, ptr %29, align 8, !tbaa !455
  %30 = getelementptr inbounds nuw i8, ptr %1, i64 6
  %31 = load i8, ptr %30, align 1, !tbaa !18
  %32 = zext i8 %31 to i32
  %33 = getelementptr inbounds nuw i8, ptr %0, i64 180
  store i32 %32, ptr %33, align 4, !tbaa !456
  br label %34

34:                                               ; preds = %3, %4
  %.0 = phi i32 [ 0, %4 ], [ 73, %3 ]
  ret i32 %.0
}